target datalayout = "e-m:e-p270:32:32-p271:32:32-p272:64:64-i64:64-i128:128-f80:128-n8:16:32:64-S128"
target triple = "x86_64-unknown-linux-gnu"

; Function Attrs: mustprogress nounwind uwtable
define linkonce_odr noundef ptr @_ZN7rocksdb22static_cast_with_checkINS_6DBImplENS_2DBEEEPT_PT0_(ptr noundef %x) #1 comdat {
entry:
  %x.addr = alloca ptr, align 8
  %ret = alloca ptr, align 8
  store ptr %x, ptr %x.addr, align 8
  %0 = load ptr, ptr %x.addr, align 8
  store ptr %0, ptr %ret, align 8
  %1 = load ptr, ptr %ret, align 8
  ret ptr %1
}

; Function Attrs: mustprogress uwtable
define void @_ZN7rocksdb23CancelAllBackgroundWorkEPNS_2DBEb(ptr noundef %db, i1 noundef zeroext %wait) #0 {
entry:
  %db.addr = alloca ptr, align 8
  %wait.addr = alloca i8, align 1
  store ptr %db, ptr %db.addr, align 8
  %frombool = zext i1 %wait to i8
  store i8 %frombool, ptr %wait.addr, align 1
  %0 = load ptr, ptr %db.addr, align 8
  %vtable = load ptr, ptr %0, align 8
  %vfn = getelementptr inbounds ptr, ptr %vtable, i64 147
  %1 = load ptr, ptr %vfn, align 8
  %call = call noundef ptr %1(ptr noundef nonnull align 8 dereferenceable(8) %0)
  %call1 = call noundef ptr @_ZN7rocksdb22static_cast_with_checkINS_6DBImplENS_2DBEEEPT_PT0_(ptr noundef %call)
  %2 = load i8, ptr %wait.addr, align 1
  %tobool = trunc i8 %2 to i1
  call void @_ZN7rocksdb6DBImpl23CancelAllBackgroundWorkEb(ptr noundef nonnull align 64 dereferenceable(6660) %call1, i1 noundef zeroext %tobool)
  ret void
}