; Function Attrs: mustprogress uwtable
define void @_ZN7rocksdb23CancelAllBackgroundWorkEPNS_2DBEb(ptr noundef %db, i1 noundef zeroext %wait) local_unnamed_addr #3 {
entry:
  %vtable = load ptr, ptr %db, align 8
  %vfn = getelementptr inbounds i8, ptr %vtable, i64 1176
  %0 = load ptr, ptr %vfn, align 8
  %call = tail call noundef ptr %0(ptr noundef nonnull align 8 dereferenceable(8) %db)
  tail call void @_ZN7rocksdb6DBImpl23CancelAllBackgroundWorkEb(ptr noundef nonnull align 64 dereferenceable(6660) %call, i1 noundef zeroext %wait)
  ret void
}